target datalayout = "e-m:e-p270:32:32-p271:32:32-p272:64:64-i64:64-i128:128-f80:128-n8:16:32:64-S128"
target triple = "x86_64-pc-linux-gnu"

@use_xdc_mappings = internal global i32 1, align 4
@show_soc_flags = hidden global i32 0, align 4
@.str.19 = private unnamed_addr constant [9 x i8] c"epl.asnd\00", align 1
@.str.416 = private unnamed_addr constant [19 x i8] c"Ethernet POWERLINK\00", align 1
@.str.417 = private unnamed_addr constant [4 x i8] c"EPL\00", align 1
@.str.418 = private unnamed_addr constant [4 x i8] c"epl\00", align 1
@proto_epl = internal global i32 0, align 4
@.str.419 = private unnamed_addr constant [24 x i8] c"Data encapsuated in EPL\00", align 1
@heur_epl_subdissector_list = internal global ptr null, align 8
@.str.420 = private unnamed_addr constant [9 x i8] c"epl_data\00", align 1
@.str.421 = private unnamed_addr constant [9 x i8] c"EPL Data\00", align 1
@heur_epl_data_subdissector_list = internal global ptr null, align 8
@.str.422 = private unnamed_addr constant [35 x i8] c"Manufacturer specific ASND service\00", align 1
@epl_asnd_dissector_table = internal global ptr null, align 8
@epl_handle = internal global ptr null, align 8
@.str.423 = private unnamed_addr constant [8 x i8] c"epl.udp\00", align 1
@epl_udp_handle = internal global ptr null, align 8
@.str.424 = private unnamed_addr constant [15 x i8] c"show_soc_flags\00", align 1
@.str.425 = private unnamed_addr constant [39 x i8] c"Show flags of SoC frame in Info column\00", align 1
@.str.426 = private unnamed_addr constant [84 x i8] c"If you are capturing in networks with multiplexed or slow nodes, this can be useful\00", align 1
@.str.427 = private unnamed_addr constant [30 x i8] c"show_duplicated_command_layer\00", align 1
@.str.428 = private unnamed_addr constant [40 x i8] c"Show command-layer in duplicated frames\00", align 1
@.str.429 = private unnamed_addr constant [112 x i8] c"For analysis purposes one might want to show the command layer even if the dissector assumes a duplicated frame\00", align 1
@show_cmd_layer_for_duplicated = internal global i32 0, align 4
@.str.430 = private unnamed_addr constant [19 x i8] c"show_pdo_meta_info\00", align 1
@.str.431 = private unnamed_addr constant [60 x i8] c"Show life times and origin PDO Tx/Rx params for PDO entries\00", align 1
@.str.432 = private unnamed_addr constant [121 x i8] c"For analysis purposes one might want to see how long the current mapping has been active for and what OD write caused it\00", align 1
@show_pdo_meta_info = internal global i32 0, align 4
@.str.433 = private unnamed_addr constant [17 x i8] c"use_sdo_mappings\00", align 1
@.str.434 = private unnamed_addr constant [42 x i8] c"Use SDO ObjectMappings for PDO dissection\00", align 1
@.str.435 = private unnamed_addr constant [56 x i8] c"Partition PDOs according to ObjectMappings sent via SDO\00", align 1
@use_sdo_mappings = internal global i32 1, align 4
@.str.436 = private unnamed_addr constant [17 x i8] c"use_xdc_mappings\00", align 1
@.str.437 = private unnamed_addr constant [42 x i8] c"Use XDC ObjectMappings for PDO dissection\00", align 1
@.str.438 = private unnamed_addr constant [169 x i8] c"If you want to parse the defaultValue (XDD) and actualValue (XDC) attributes for ObjectMappings in order to detect default PDO mappings, which may not be sent over SDO \00", align 1
@.str.439 = private unnamed_addr constant [24 x i8] c"interpret_untyped_as_le\00", align 1
@.str.440 = private unnamed_addr constant [56 x i8] c"Interpret short (<64bit) data as little endian integers\00", align 1
@.str.441 = private unnamed_addr constant [191 x i8] c"If a data field has untyped data under 8 byte long, interpret it as unsigned little endian integer and show decimal and hexadecimal representation thereof. Otherwise use stock data dissector\00", align 1
@interpret_untyped_as_le = internal global i32 1, align 4
@epl_profiles_by_device = internal global ptr null, align 8
@epl_profiles_by_nodeid = internal global ptr null, align 8
@epl_profiles_by_address = internal global ptr null, align 8
@.str.442 = private unnamed_addr constant [16 x i8] c"default_profile\00", align 1
@.str.443 = private unnamed_addr constant [53 x i8] c"Default Profile to use if no specific profiles exist\00", align 1
@.str.444 = private unnamed_addr constant [154 x i8] c"If you have a capture without IdentResponse and many nodes, it's easier to set a default profile here than to add entries for all MAC address or Node IDs\00", align 1
@epl_default_profile_path = internal global ptr null, align 8
@.str.445 = private unnamed_addr constant [25 x i8] c"Device-Specific Profiles\00", align 1
@.str.446 = private unnamed_addr constant [20 x i8] c"epl_device_profiles\00", align 1
@device_profile_list_uats = internal global ptr null, align 8
@ndevice_profile_uat = internal global i32 0, align 4
@device_profile_uat = internal global ptr null, align 8
@.str.447 = private unnamed_addr constant [16 x i8] c"device_profiles\00", align 1
@.str.448 = private unnamed_addr constant [42 x i8] c"Add vendor-provided EDS/XDD profiles here\00", align 1
@.str.449 = private unnamed_addr constant [25 x i8] c"NodeID-Specific Profiles\00", align 1
@.str.450 = private unnamed_addr constant [20 x i8] c"epl_nodeid_profiles\00", align 1
@nodeid_profile_list_uats = internal global ptr null, align 8
@nnodeid_profile_uat = internal global i32 0, align 4
@nodeid_profile_uat = internal global ptr null, align 8
@.str.451 = private unnamed_addr constant [16 x i8] c"nodeid_profiles\00", align 1
@.str.452 = private unnamed_addr constant [23 x i8] c"Node-Specific Profiles\00", align 1
@.str.453 = private unnamed_addr constant [55 x i8] c"Assign vendor-provided EDS/XDD profiles to CN IDs here\00", align 1

; Function Attrs: nounwind uwtable
define hidden void @proto_register_epl() #0 {
  %1 = alloca ptr, align 8
  %2 = alloca ptr, align 8
  %3 = call i32 @proto_register_protocol(ptr noundef @.str.416, ptr noundef @.str.417, ptr noundef @.str.418)
  store i32 %3, ptr @proto_epl, align 4
  %4 = load i32, ptr @proto_epl, align 4
  %5 = call ptr @register_heur_dissector_list_with_description(ptr noundef @.str.418, ptr noundef @.str.419, i32 noundef %4)
  store ptr %5, ptr @heur_epl_subdissector_list, align 8
  %6 = load i32, ptr @proto_epl, align 4
  %7 = call ptr @register_heur_dissector_list_with_description(ptr noundef @.str.420, ptr noundef @.str.421, i32 noundef %6)
  store ptr %7, ptr @heur_epl_data_subdissector_list, align 8
  %8 = load i32, ptr @proto_epl, align 4
  %9 = call ptr @register_dissector_table(ptr noundef @.str.19, ptr noundef @.str.422, i32 noundef %8, i32 noundef 4, i32 noundef 1)
  store ptr %9, ptr @epl_asnd_dissector_table, align 8
  %10 = load i32, ptr @proto_epl, align 4
  %11 = call ptr @register_dissector(ptr noundef @.str.418, ptr noundef @dissect_epl, i32 noundef %10)
  store ptr %11, ptr @epl_handle, align 8
  %12 = load i32, ptr @proto_epl, align 4
  %13 = call ptr @register_dissector(ptr noundef @.str.423, ptr noundef @dissect_epludp, i32 noundef %12)
  store ptr %13, ptr @epl_udp_handle, align 8
  %14 = load i32, ptr @proto_epl, align 4
  call void @proto_register_field_array(i32 noundef %14, ptr noundef @proto_register_epl.hf, i32 noundef 231)
  call void @proto_register_subtree_array(ptr noundef @proto_register_epl.ett, i32 noundef 22)
  %15 = load i32, ptr @proto_epl, align 4
  %16 = call ptr @expert_register_protocol(i32 noundef %15)
  store ptr %16, ptr %2, align 8
  %17 = load ptr, ptr %2, align 8
  call void @expert_register_field_array(ptr noundef %17, ptr noundef @proto_register_epl.ei, i32 noundef 4)
  %18 = load i32, ptr @proto_epl, align 4
  %19 = call ptr @prefs_register_protocol(i32 noundef %18, ptr noundef @apply_prefs)
  store ptr %19, ptr %1, align 8
  %20 = load ptr, ptr %1, align 8
  call void @prefs_register_bool_preference(ptr noundef %20, ptr noundef @.str.424, ptr noundef @.str.425, ptr noundef @.str.426, ptr noundef @show_soc_flags)
  %21 = load ptr, ptr %1, align 8
  call void @prefs_register_bool_preference(ptr noundef %21, ptr noundef @.str.427, ptr noundef @.str.428, ptr noundef @.str.429, ptr noundef @show_cmd_layer_for_duplicated)
  %22 = load ptr, ptr %1, align 8
  call void @prefs_register_bool_preference(ptr noundef %22, ptr noundef @.str.430, ptr noundef @.str.431, ptr noundef @.str.432, ptr noundef @show_pdo_meta_info)
  %23 = load ptr, ptr %1, align 8
  call void @prefs_register_bool_preference(ptr noundef %23, ptr noundef @.str.433, ptr noundef @.str.434, ptr noundef @.str.435, ptr noundef @use_sdo_mappings)
  %24 = load ptr, ptr %1, align 8
  call void @prefs_register_bool_preference(ptr noundef %24, ptr noundef @.str.436, ptr noundef @.str.437, ptr noundef @.str.438, ptr noundef @use_xdc_mappings)
  %25 = load ptr, ptr %1, align 8
  call void @prefs_register_bool_preference(ptr noundef %25, ptr noundef @.str.439, ptr noundef @.str.440, ptr noundef @.str.441, ptr noundef @interpret_untyped_as_le)
  %26 = call ptr @wmem_epan_scope()
  %27 = call noalias ptr @wmem_map_new(ptr noundef %26, ptr noundef @g_direct_hash, ptr noundef @g_direct_equal)
  store ptr %27, ptr @epl_profiles_by_device, align 8
  %28 = call ptr @wmem_epan_scope()
  %29 = call noalias ptr @wmem_map_new(ptr noundef %28, ptr noundef @g_direct_hash, ptr noundef @g_direct_equal)
  store ptr %29, ptr @epl_profiles_by_nodeid, align 8
  %30 = call ptr @wmem_epan_scope()
  %31 = call noalias ptr @wmem_map_new(ptr noundef %30, ptr noundef @epl_address_hash, ptr noundef @epl_address_equal)
  store ptr %31, ptr @epl_profiles_by_address, align 8
  call void @epl_eds_init()
  %32 = load ptr, ptr %1, align 8
  call void @prefs_register_filename_preference(ptr noundef %32, ptr noundef @.str.442, ptr noundef @.str.443, ptr noundef @.str.444, ptr noundef @epl_default_profile_path, i32 noundef 0)
  %33 = call ptr @uat_new(ptr noundef @.str.445, i64 noundef 24, ptr noundef @.str.446, i1 noundef zeroext true, ptr noundef @device_profile_list_uats, ptr noundef @ndevice_profile_uat, i32 noundef 1, ptr noundef null, ptr noundef @device_profile_uat_copy_cb, ptr noundef @device_profile_uat_update_record, ptr noundef @device_profile_uat_free_cb, ptr noundef @device_profile_parse_uat, ptr noundef null, ptr noundef @device_profile_list_uats_flds)
  store ptr %33, ptr @device_profile_uat, align 8
  %34 = load ptr, ptr %1, align 8
  %35 = load ptr, ptr @device_profile_uat, align 8
  call void @prefs_register_uat_preference(ptr noundef %34, ptr noundef @.str.447, ptr noundef @.str.445, ptr noundef @.str.448, ptr noundef %35)
  %36 = call ptr @uat_new(ptr noundef @.str.449, i64 noundef 48, ptr noundef @.str.450, i1 noundef zeroext true, ptr noundef @nodeid_profile_list_uats, ptr noundef @nnodeid_profile_uat, i32 noundef 1, ptr noundef null, ptr noundef @nodeid_profile_uat_copy_cb, ptr noundef @nodeid_profile_uat_update_record, ptr noundef @nodeid_profile_uat_free_cb, ptr noundef @nodeid_profile_parse_uat, ptr noundef null, ptr noundef @nodeid_profile_list_uats_flds)
  store ptr %36, ptr @nodeid_profile_uat, align 8
  %37 = load ptr, ptr %1, align 8
  %38 = load ptr, ptr @nodeid_profile_uat, align 8
  call void @prefs_register_uat_preference(ptr noundef %37, ptr noundef @.str.451, ptr noundef @.str.452, ptr noundef @.str.453, ptr noundef %38)
  ret void
}