; Function Attrs: nounwind uwtable
define hidden void @proto_register_epl() local_unnamed_addr #2 {
  %1 = tail call i32 @proto_register_protocol(ptr noundef nonnull @.str.416, ptr noundef nonnull @.str.417, ptr noundef nonnull @.str.418) #18
  store i32 %1, ptr @proto_epl, align 4
  %2 = tail call ptr @register_heur_dissector_list_with_description(ptr noundef nonnull @.str.418, ptr noundef nonnull @.str.419, i32 noundef %1) #18
  store ptr %2, ptr @heur_epl_subdissector_list, align 8
  %3 = load i32, ptr @proto_epl, align 4
  %4 = tail call ptr @register_heur_dissector_list_with_description(ptr noundef nonnull @.str.420, ptr noundef nonnull @.str.421, i32 noundef %3) #18
  store ptr %4, ptr @heur_epl_data_subdissector_list, align 8
  %5 = load i32, ptr @proto_epl, align 4
  %6 = tail call ptr @register_dissector_table(ptr noundef nonnull @.str.19, ptr noundef nonnull @.str.422, i32 noundef %5, i32 noundef 4, i32 noundef 1) #18
  store ptr %6, ptr @epl_asnd_dissector_table, align 8
  %7 = load i32, ptr @proto_epl, align 4
  %8 = tail call ptr @register_dissector(ptr noundef nonnull @.str.418, ptr noundef nonnull @dissect_epl, i32 noundef %7) #18
  store ptr %8, ptr @epl_handle, align 8
  %9 = load i32, ptr @proto_epl, align 4
  %10 = tail call ptr @register_dissector(ptr noundef nonnull @.str.423, ptr noundef nonnull @dissect_epludp, i32 noundef %9) #18
  store ptr %10, ptr @epl_udp_handle, align 8
  %11 = load i32, ptr @proto_epl, align 4
  tail call void @proto_register_field_array(i32 noundef %11, ptr noundef nonnull @proto_register_epl.hf, i32 noundef 231) #18
  tail call void @proto_register_subtree_array(ptr noundef nonnull @proto_register_epl.ett, i32 noundef 22) #18
  %12 = load i32, ptr @proto_epl, align 4
  %13 = tail call ptr @expert_register_protocol(i32 noundef %12) #18
  tail call void @expert_register_field_array(ptr noundef %13, ptr noundef nonnull @proto_register_epl.ei, i32 noundef 4) #18
  %14 = load i32, ptr @proto_epl, align 4
  %15 = tail call ptr @prefs_register_protocol(i32 noundef %14, ptr noundef nonnull @apply_prefs) #18
  tail call void @prefs_register_bool_preference(ptr noundef %15, ptr noundef nonnull @.str.424, ptr noundef nonnull @.str.425, ptr noundef nonnull @.str.426, ptr noundef nonnull @show_soc_flags) #18
  tail call void @prefs_register_bool_preference(ptr noundef %15, ptr noundef nonnull @.str.427, ptr noundef nonnull @.str.428, ptr noundef nonnull @.str.429, ptr noundef nonnull @show_cmd_layer_for_duplicated) #18
  tail call void @prefs_register_bool_preference(ptr noundef %15, ptr noundef nonnull @.str.430, ptr noundef nonnull @.str.431, ptr noundef nonnull @.str.432, ptr noundef nonnull @show_pdo_meta_info) #18
  tail call void @prefs_register_bool_preference(ptr noundef %15, ptr noundef nonnull @.str.433, ptr noundef nonnull @.str.434, ptr noundef nonnull @.str.435, ptr noundef nonnull @use_sdo_mappings) #18
  tail call void @prefs_register_bool_preference(ptr noundef %15, ptr noundef nonnull @.str.436, ptr noundef nonnull @.str.437, ptr noundef nonnull @.str.438, ptr noundef nonnull @use_xdc_mappings) #18
  tail call void @prefs_register_bool_preference(ptr noundef %15, ptr noundef nonnull @.str.439, ptr noundef nonnull @.str.440, ptr noundef nonnull @.str.441, ptr noundef nonnull @interpret_untyped_as_le) #18
  %16 = tail call ptr @wmem_epan_scope() #18
  %17 = tail call noalias ptr @wmem_map_new(ptr noundef %16, ptr noundef nonnull @g_direct_hash, ptr noundef nonnull @g_direct_equal) #18
  store ptr %17, ptr @epl_profiles_by_device, align 8
  %18 = tail call ptr @wmem_epan_scope() #18
  %19 = tail call noalias ptr @wmem_map_new(ptr noundef %18, ptr noundef nonnull @g_direct_hash, ptr noundef nonnull @g_direct_equal) #18
  store ptr %19, ptr @epl_profiles_by_nodeid, align 8
  %20 = tail call ptr @wmem_epan_scope() #18
  %21 = tail call noalias ptr @wmem_map_new(ptr noundef %20, ptr noundef nonnull @epl_address_hash, ptr noundef nonnull @epl_address_equal) #18
  store ptr %21, ptr @epl_profiles_by_address, align 8
  tail call void @epl_eds_init() #18
  tail call void @prefs_register_filename_preference(ptr noundef %15, ptr noundef nonnull @.str.442, ptr noundef nonnull @.str.443, ptr noundef nonnull @.str.444, ptr noundef nonnull @epl_default_profile_path, i32 noundef 0) #18
  %22 = tail call ptr @uat_new(ptr noundef nonnull @.str.445, i64 noundef 24, ptr noundef nonnull @.str.446, i1 noundef zeroext true, ptr noundef nonnull @device_profile_list_uats, ptr noundef nonnull @ndevice_profile_uat, i32 noundef 1, ptr noundef null, ptr noundef nonnull @device_profile_uat_copy_cb, ptr noundef nonnull @device_profile_uat_update_record, ptr noundef nonnull @device_profile_uat_free_cb, ptr noundef nonnull @device_profile_parse_uat, ptr noundef null, ptr noundef nonnull @device_profile_list_uats_flds) #18
  store ptr %22, ptr @device_profile_uat, align 8
  tail call void @prefs_register_uat_preference(ptr noundef %15, ptr noundef nonnull @.str.447, ptr noundef nonnull @.str.445, ptr noundef nonnull @.str.448, ptr noundef %22) #18
  %23 = tail call ptr @uat_new(ptr noundef nonnull @.str.449, i64 noundef 48, ptr noundef nonnull @.str.450, i1 noundef zeroext true, ptr noundef nonnull @nodeid_profile_list_uats, ptr noundef nonnull @nnodeid_profile_uat, i32 noundef 1, ptr noundef null, ptr noundef nonnull @nodeid_profile_uat_copy_cb, ptr noundef nonnull @nodeid_profile_uat_update_record, ptr noundef nonnull @nodeid_profile_uat_free_cb, ptr noundef nonnull @nodeid_profile_parse_uat, ptr noundef null, ptr noundef nonnull @nodeid_profile_list_uats_flds) #18
  store ptr %23, ptr @nodeid_profile_uat, align 8
  tail call void @prefs_register_uat_preference(ptr noundef %15, ptr noundef nonnull @.str.451, ptr noundef nonnull @.str.452, ptr noundef nonnull @.str.453, ptr noundef %23) #18
  ret void
}